target datalayout = "e-m:e-p270:32:32-p271:32:32-p272:64:64-i64:64-i128:128-f80:128-n8:16:32:64-S128"
target triple = "x86_64-unknown-linux-gnu"

%"class.arrow::ArrayBuilder" = type { ptr, ptr, i64, %"class.arrow::TypedBufferBuilder", i64, i64, i64, %"class.std::vector" }
%"class.arrow::TypedBufferBuilder" = type { %"class.arrow::BufferBuilder", i64, i64 }
%"class.arrow::BufferBuilder" = type { %"class.std::shared_ptr", ptr, ptr, i64, i64, i64 }
%"class.std::shared_ptr" = type { %"class.std::__shared_ptr" }
%"class.std::__shared_ptr" = type { ptr, %"class.std::__shared_count" }
%"class.std::__shared_count" = type { ptr }
%"class.std::vector" = type { %"struct.std::_Vector_base" }
%"struct.std::_Vector_base" = type { %"struct.std::_Vector_base<std::shared_ptr<arrow::ArrayBuilder>, std::allocator<std::shared_ptr<arrow::ArrayBuilder>>>::_Vector_impl" }
%"struct.std::_Vector_base<std::shared_ptr<arrow::ArrayBuilder>, std::allocator<std::shared_ptr<arrow::ArrayBuilder>>>::_Vector_impl" = type { %"struct.std::_Vector_base<std::shared_ptr<arrow::ArrayBuilder>, std::allocator<std::shared_ptr<arrow::ArrayBuilder>>>::_Vector_impl_data" }
%"struct.std::_Vector_base<std::shared_ptr<arrow::ArrayBuilder>, std::allocator<std::shared_ptr<arrow::ArrayBuilder>>>::_Vector_impl_data" = type { ptr, ptr, ptr }
%"class.arrow::Status" = type { ptr }
%"class.arrow::internal::ChunkedBinaryBuilder" = type { ptr, i64, i64, i64, %"class.std::unique_ptr", %"class.std::vector.46" }
%"class.std::unique_ptr" = type { %"struct.std::__uniq_ptr_data" }
%"struct.std::__uniq_ptr_data" = type { %"class.std::__uniq_ptr_impl" }
%"class.std::__uniq_ptr_impl" = type { %"class.std::tuple" }
%"class.std::tuple" = type { %"struct.std::_Tuple_impl" }
%"struct.std::_Tuple_impl" = type { %"struct.std::_Head_base.45" }
%"struct.std::_Head_base.45" = type { ptr }
%"class.std::vector.46" = type { %"struct.std::_Vector_base.47" }
%"struct.std::_Vector_base.47" = type { %"struct.std::_Vector_base<std::shared_ptr<arrow::Array>, std::allocator<std::shared_ptr<arrow::Array>>>::_Vector_impl" }
%"struct.std::_Vector_base<std::shared_ptr<arrow::Array>, std::allocator<std::shared_ptr<arrow::Array>>>::_Vector_impl" = type { %"struct.std::_Vector_base<std::shared_ptr<arrow::Array>, std::allocator<std::shared_ptr<arrow::Array>>>::_Vector_impl_data" }
%"struct.std::_Vector_base<std::shared_ptr<arrow::Array>, std::allocator<std::shared_ptr<arrow::Array>>>::_Vector_impl_data" = type { ptr, ptr, ptr }

; Function Attrs: mustprogress nounwind uwtable
define linkonce_odr noundef nonnull align 8 dereferenceable(8) ptr @_ZNSt10_Head_baseILm0EPN5arrow13BinaryBuilderELb0EE7_M_headERKS3_(ptr noundef nonnull align 8 dereferenceable(8) %__b) #1 comdat align 2 {
entry:
  %__b.addr = alloca ptr, align 8
  store ptr %__b, ptr %__b.addr, align 8
  %0 = load ptr, ptr %__b.addr, align 8
  %_M_head_impl = getelementptr inbounds %"struct.std::_Head_base.45", ptr %0, i32 0, i32 0
  ret ptr %_M_head_impl
}

; Function Attrs: mustprogress nounwind uwtable
define linkonce_odr noundef nonnull align 8 dereferenceable(8) ptr @_ZNSt11_Tuple_implILm0EJPN5arrow13BinaryBuilderESt14default_deleteIS1_EEE7_M_headERKS5_(ptr noundef nonnull align 8 dereferenceable(8) %__t) #1 comdat align 2 {
entry:
  %__t.addr = alloca ptr, align 8
  store ptr %__t, ptr %__t.addr, align 8
  %0 = load ptr, ptr %__t.addr, align 8
  %call = call noundef nonnull align 8 dereferenceable(8) ptr @_ZNSt10_Head_baseILm0EPN5arrow13BinaryBuilderELb0EE7_M_headERKS3_(ptr noundef nonnull align 8 dereferenceable(8) %0) #12
  ret ptr %call
}

; Function Attrs: mustprogress nounwind uwtable
define linkonce_odr noundef nonnull align 8 dereferenceable(8) ptr @_ZSt12__get_helperILm0EPN5arrow13BinaryBuilderEJSt14default_deleteIS1_EEERKT0_RKSt11_Tuple_implIXT_EJS5_DpT1_EE(ptr noundef nonnull align 8 dereferenceable(8) %__t) #1 comdat {
entry:
  %__t.addr = alloca ptr, align 8
  store ptr %__t, ptr %__t.addr, align 8
  %0 = load ptr, ptr %__t.addr, align 8
  %call = call noundef nonnull align 8 dereferenceable(8) ptr @_ZNSt11_Tuple_implILm0EJPN5arrow13BinaryBuilderESt14default_deleteIS1_EEE7_M_headERKS5_(ptr noundef nonnull align 8 dereferenceable(8) %0) #12
  ret ptr %call
}

; Function Attrs: mustprogress nounwind uwtable
define linkonce_odr noundef nonnull align 8 dereferenceable(8) ptr @_ZSt3getILm0EJPN5arrow13BinaryBuilderESt14default_deleteIS1_EEERKNSt13tuple_elementIXT_ESt5tupleIJDpT0_EEE4typeERKS9_(ptr noundef nonnull align 8 dereferenceable(8) %__t) #1 comdat {
entry:
  %__t.addr = alloca ptr, align 8
  store ptr %__t, ptr %__t.addr, align 8
  %0 = load ptr, ptr %__t.addr, align 8
  %call = call noundef nonnull align 8 dereferenceable(8) ptr @_ZSt12__get_helperILm0EPN5arrow13BinaryBuilderEJSt14default_deleteIS1_EEERKT0_RKSt11_Tuple_implIXT_EJS5_DpT1_EE(ptr noundef nonnull align 8 dereferenceable(8) %0) #12
  ret ptr %call
}

; Function Attrs: mustprogress nounwind uwtable
define linkonce_odr noundef ptr @_ZNKSt15__uniq_ptr_implIN5arrow13BinaryBuilderESt14default_deleteIS1_EE6_M_ptrEv(ptr noundef nonnull align 8 dereferenceable(8) %this) #1 comdat align 2 {
entry:
  %this.addr = alloca ptr, align 8
  store ptr %this, ptr %this.addr, align 8
  %this1 = load ptr, ptr %this.addr, align 8
  %_M_t = getelementptr inbounds %"class.std::__uniq_ptr_impl", ptr %this1, i32 0, i32 0
  %call = call noundef nonnull align 8 dereferenceable(8) ptr @_ZSt3getILm0EJPN5arrow13BinaryBuilderESt14default_deleteIS1_EEERKNSt13tuple_elementIXT_ESt5tupleIJDpT0_EEE4typeERKS9_(ptr noundef nonnull align 8 dereferenceable(8) %_M_t) #12
  %0 = load ptr, ptr %call, align 8
  ret ptr %0
}

; Function Attrs: mustprogress nounwind uwtable
define linkonce_odr noundef nonnull align 8 dereferenceable(8) ptr @_ZSt3maxIlERKT_S2_S2_(ptr noundef nonnull align 8 dereferenceable(8) %__a, ptr noundef nonnull align 8 dereferenceable(8) %__b) #1 comdat {
entry:
  %retval = alloca ptr, align 8
  %__a.addr = alloca ptr, align 8
  %__b.addr = alloca ptr, align 8
  store ptr %__a, ptr %__a.addr, align 8
  store ptr %__b, ptr %__b.addr, align 8
  %0 = load ptr, ptr %__a.addr, align 8
  %1 = load i64, ptr %0, align 8
  %2 = load ptr, ptr %__b.addr, align 8
  %3 = load i64, ptr %2, align 8
  %cmp = icmp slt i64 %1, %3
  br i1 %cmp, label %if.then, label %if.end

if.then:                                          ; preds = %entry
  %4 = load ptr, ptr %__b.addr, align 8
  store ptr %4, ptr %retval, align 8
  br label %return

if.end:                                           ; preds = %entry
  %5 = load ptr, ptr %__a.addr, align 8
  store ptr %5, ptr %retval, align 8
  br label %return

return:                                           ; preds = %if.end, %if.then
  %6 = load ptr, ptr %retval, align 8
  ret ptr %6
}

; Function Attrs: mustprogress nounwind uwtable
define linkonce_odr noundef ptr @_ZNKSt10unique_ptrIN5arrow13BinaryBuilderESt14default_deleteIS1_EE3getEv(ptr noundef nonnull align 8 dereferenceable(8) %this) #1 comdat align 2 {
entry:
  %this.addr = alloca ptr, align 8
  store ptr %this, ptr %this.addr, align 8
  %this1 = load ptr, ptr %this.addr, align 8
  %_M_t = getelementptr inbounds %"class.std::unique_ptr", ptr %this1, i32 0, i32 0
  %call = call noundef ptr @_ZNKSt15__uniq_ptr_implIN5arrow13BinaryBuilderESt14default_deleteIS1_EE6_M_ptrEv(ptr noundef nonnull align 8 dereferenceable(8) %_M_t) #12
  ret ptr %call
}

; Function Attrs: mustprogress nounwind uwtable
define linkonce_odr void @_ZN5arrow6StatusC2Ev(ptr noundef nonnull align 8 dereferenceable(8) %this) unnamed_addr #1 comdat align 2 {
entry:
  %this.addr = alloca ptr, align 8
  store ptr %this, ptr %this.addr, align 8
  %this1 = load ptr, ptr %this.addr, align 8
  %state_ = getelementptr inbounds %"class.arrow::Status", ptr %this1, i32 0, i32 0
  store ptr null, ptr %state_, align 8
  ret void
}

; Function Attrs: mustprogress uwtable
define linkonce_odr noundef i64 @_ZN5arrow13BufferBuilder12GrowByFactorEll(i64 noundef %current_capacity, i64 noundef %new_capacity) #0 comdat align 2 {
entry:
  %current_capacity.addr = alloca i64, align 8
  %new_capacity.addr = alloca i64, align 8
  %ref.tmp = alloca i64, align 8
  store i64 %current_capacity, ptr %current_capacity.addr, align 8
  store i64 %new_capacity, ptr %new_capacity.addr, align 8
  %0 = load i64, ptr %current_capacity.addr, align 8
  %mul = mul nsw i64 %0, 2
  store i64 %mul, ptr %ref.tmp, align 8
  %call = call noundef nonnull align 8 dereferenceable(8) ptr @_ZSt3maxIlERKT_S2_S2_(ptr noundef nonnull align 8 dereferenceable(8) %new_capacity.addr, ptr noundef nonnull align 8 dereferenceable(8) %ref.tmp)
  %1 = load i64, ptr %call, align 8
  ret i64 %1
}

; Function Attrs: mustprogress nounwind uwtable
define linkonce_odr noundef i64 @_ZNK5arrow12ArrayBuilder8capacityEv(ptr noundef nonnull align 8 dereferenceable(144) %this) #1 comdat align 2 {
entry:
  %this.addr = alloca ptr, align 8
  store ptr %this, ptr %this.addr, align 8
  %this1 = load ptr, ptr %this.addr, align 8
  %capacity_ = getelementptr inbounds %"class.arrow::ArrayBuilder", ptr %this1, i32 0, i32 6
  %0 = load i64, ptr %capacity_, align 8
  ret i64 %0
}

; Function Attrs: mustprogress nounwind uwtable
define linkonce_odr noundef ptr @_ZNKSt10unique_ptrIN5arrow13BinaryBuilderESt14default_deleteIS1_EEptEv(ptr noundef nonnull align 8 dereferenceable(8) %this) #1 comdat align 2 {
entry:
  %this.addr = alloca ptr, align 8
  store ptr %this, ptr %this.addr, align 8
  %this1 = load ptr, ptr %this.addr, align 8
  %call = call noundef ptr @_ZNKSt10unique_ptrIN5arrow13BinaryBuilderESt14default_deleteIS1_EE3getEv(ptr noundef nonnull align 8 dereferenceable(8) %this1) #12
  ret ptr %call
}

; Function Attrs: mustprogress nounwind uwtable
define linkonce_odr void @_ZN5arrow6Status2OKEv(ptr noalias sret(%"class.arrow::Status") align 8 %agg.result) #1 comdat align 2 {
entry:
  %result.ptr = alloca ptr, align 8
  store ptr %agg.result, ptr %result.ptr, align 8
  call void @_ZN5arrow6StatusC2Ev(ptr noundef nonnull align 8 dereferenceable(8) %agg.result) #12
  ret void
}

; Function Attrs: mustprogress uwtable
define void @_ZN5arrow8internal20ChunkedBinaryBuilder7ReserveEl(ptr noalias sret(%"class.arrow::Status") align 8 %agg.result, ptr noundef nonnull align 8 dereferenceable(64) %this, i64 noundef %values) #0 align 2 {
entry:
  %result.ptr = alloca ptr, align 8
  %this.addr = alloca ptr, align 8
  %values.addr = alloca i64, align 8
  %current_capacity = alloca i64, align 8
  %min_capacity = alloca i64, align 8
  %new_capacity = alloca i64, align 8
  store ptr %agg.result, ptr %result.ptr, align 8
  store ptr %this, ptr %this.addr, align 8
  store i64 %values, ptr %values.addr, align 8
  %this1 = load ptr, ptr %this.addr, align 8
  %extra_capacity_ = getelementptr inbounds %"class.arrow::internal::ChunkedBinaryBuilder", ptr %this1, i32 0, i32 3
  %0 = load i64, ptr %extra_capacity_, align 8
  %cmp = icmp ne i64 %0, 0
  %lnot = xor i1 %cmp, true
  %lnot2 = xor i1 %lnot, true
  br i1 %lnot2, label %if.then, label %if.end

if.then:                                          ; preds = %entry
  %1 = load i64, ptr %values.addr, align 8
  %extra_capacity_3 = getelementptr inbounds %"class.arrow::internal::ChunkedBinaryBuilder", ptr %this1, i32 0, i32 3
  %2 = load i64, ptr %extra_capacity_3, align 8
  %add = add nsw i64 %2, %1
  store i64 %add, ptr %extra_capacity_3, align 8
  call void @_ZN5arrow6Status2OKEv(ptr sret(%"class.arrow::Status") align 8 %agg.result)
  br label %return

if.end:                                           ; preds = %entry
  %builder_ = getelementptr inbounds %"class.arrow::internal::ChunkedBinaryBuilder", ptr %this1, i32 0, i32 4
  %call = call noundef ptr @_ZNKSt10unique_ptrIN5arrow13BinaryBuilderESt14default_deleteIS1_EEptEv(ptr noundef nonnull align 8 dereferenceable(8) %builder_) #12
  %call4 = call noundef i64 @_ZNK5arrow12ArrayBuilder8capacityEv(ptr noundef nonnull align 8 dereferenceable(144) %call)
  store i64 %call4, ptr %current_capacity, align 8
  %builder_5 = getelementptr inbounds %"class.arrow::internal::ChunkedBinaryBuilder", ptr %this1, i32 0, i32 4
  %call6 = call noundef ptr @_ZNKSt10unique_ptrIN5arrow13BinaryBuilderESt14default_deleteIS1_EEptEv(ptr noundef nonnull align 8 dereferenceable(8) %builder_5) #12
  %vtable = load ptr, ptr %call6, align 8
  %vfn = getelementptr inbounds ptr, ptr %vtable, i64 2
  %3 = load ptr, ptr %vfn, align 8
  %call7 = call noundef i64 %3(ptr noundef nonnull align 8 dereferenceable(144) %call6)
  %4 = load i64, ptr %values.addr, align 8
  %add8 = add nsw i64 %call7, %4
  store i64 %add8, ptr %min_capacity, align 8
  %5 = load i64, ptr %current_capacity, align 8
  %6 = load i64, ptr %min_capacity, align 8
  %cmp9 = icmp sge i64 %5, %6
  br i1 %cmp9, label %if.then10, label %if.end11

if.then10:                                        ; preds = %if.end
  call void @_ZN5arrow6Status2OKEv(ptr sret(%"class.arrow::Status") align 8 %agg.result)
  br label %return

if.end11:                                         ; preds = %if.end
  %7 = load i64, ptr %current_capacity, align 8
  %8 = load i64, ptr %min_capacity, align 8
  %call12 = call noundef i64 @_ZN5arrow13BufferBuilder12GrowByFactorEll(i64 noundef %7, i64 noundef %8)
  store i64 %call12, ptr %new_capacity, align 8
  %9 = load i64, ptr %new_capacity, align 8
  %max_chunk_length_ = getelementptr inbounds %"class.arrow::internal::ChunkedBinaryBuilder", ptr %this1, i32 0, i32 2
  %10 = load i64, ptr %max_chunk_length_, align 8
  %cmp13 = icmp sle i64 %9, %10
  %lnot14 = xor i1 %cmp13, true
  %lnot15 = xor i1 %lnot14, true
  br i1 %lnot15, label %if.then16, label %if.end21

if.then16:                                        ; preds = %if.end11
  %builder_17 = getelementptr inbounds %"class.arrow::internal::ChunkedBinaryBuilder", ptr %this1, i32 0, i32 4
  %call18 = call noundef ptr @_ZNKSt10unique_ptrIN5arrow13BinaryBuilderESt14default_deleteIS1_EEptEv(ptr noundef nonnull align 8 dereferenceable(8) %builder_17) #12
  %11 = load i64, ptr %new_capacity, align 8
  %vtable19 = load ptr, ptr %call18, align 8
  %vfn20 = getelementptr inbounds ptr, ptr %vtable19, i64 3
  %12 = load ptr, ptr %vfn20, align 8
  call void %12(ptr sret(%"class.arrow::Status") align 8 %agg.result, ptr noundef nonnull align 8 dereferenceable(256) %call18, i64 noundef %11)
  br label %return

if.end21:                                         ; preds = %if.end11
  %13 = load i64, ptr %new_capacity, align 8
  %max_chunk_length_22 = getelementptr inbounds %"class.arrow::internal::ChunkedBinaryBuilder", ptr %this1, i32 0, i32 2
  %14 = load i64, ptr %max_chunk_length_22, align 8
  %sub = sub nsw i64 %13, %14
  %extra_capacity_23 = getelementptr inbounds %"class.arrow::internal::ChunkedBinaryBuilder", ptr %this1, i32 0, i32 3
  store i64 %sub, ptr %extra_capacity_23, align 8
  %builder_24 = getelementptr inbounds %"class.arrow::internal::ChunkedBinaryBuilder", ptr %this1, i32 0, i32 4
  %call25 = call noundef ptr @_ZNKSt10unique_ptrIN5arrow13BinaryBuilderESt14default_deleteIS1_EEptEv(ptr noundef nonnull align 8 dereferenceable(8) %builder_24) #12
  %max_chunk_length_26 = getelementptr inbounds %"class.arrow::internal::ChunkedBinaryBuilder", ptr %this1, i32 0, i32 2
  %15 = load i64, ptr %max_chunk_length_26, align 8
  %vtable27 = load ptr, ptr %call25, align 8
  %vfn28 = getelementptr inbounds ptr, ptr %vtable27, i64 3
  %16 = load ptr, ptr %vfn28, align 8
  call void %16(ptr sret(%"class.arrow::Status") align 8 %agg.result, ptr noundef nonnull align 8 dereferenceable(256) %call25, i64 noundef %15)
  br label %return

return:                                           ; preds = %if.end21, %if.then16, %if.then10, %if.then
  ret void
}