; Function Attrs: mustprogress uwtable
define void @_ZN5arrow8internal20ChunkedBinaryBuilder7ReserveEl(ptr noalias sret(%"class.arrow::Status") align 8 %agg.result, ptr nocapture noundef nonnull align 8 dereferenceable(64) %this, i64 noundef %values) local_unnamed_addr #1 align 2 {
entry:
  %extra_capacity_ = getelementptr inbounds i8, ptr %this, i64 24
  %0 = load i64, ptr %extra_capacity_, align 8
  %cmp.not = icmp eq i64 %0, 0
  br i1 %cmp.not, label %if.end, label %if.then

if.then:                                          ; preds = %entry
  %add = add nsw i64 %0, %values
  store i64 %add, ptr %extra_capacity_, align 8
  store ptr null, ptr %agg.result, align 8, !alias.scope !240
  br label %return

if.end:                                           ; preds = %entry
  %builder_ = getelementptr inbounds i8, ptr %this, i64 32
  %1 = load ptr, ptr %builder_, align 8
  %capacity_.i = getelementptr inbounds i8, ptr %1, i64 112
  %2 = load i64, ptr %capacity_.i, align 8
  %vtable = load ptr, ptr %1, align 8
  %vfn = getelementptr inbounds i8, ptr %vtable, i64 16
  %3 = load ptr, ptr %vfn, align 8
  %call7 = tail call noundef i64 %3(ptr noundef nonnull align 8 dereferenceable(144) %1)
  %add8 = add nsw i64 %call7, %values
  %cmp9.not = icmp slt i64 %2, %add8
  br i1 %cmp9.not, label %if.end11, label %if.then10

if.then10:                                        ; preds = %if.end
  store ptr null, ptr %agg.result, align 8, !alias.scope !243
  br label %return

if.end11:                                         ; preds = %if.end
  %mul.i = shl nsw i64 %2, 1
  %.sroa.speculated.i = tail call noundef i64 @llvm.smax.i64(i64 %mul.i, i64 %add8)
  %max_chunk_length_ = getelementptr inbounds i8, ptr %this, i64 16
  %4 = load i64, ptr %max_chunk_length_, align 8
  %cmp13.not = icmp sgt i64 %.sroa.speculated.i, %4
  br i1 %cmp13.not, label %if.end21, label %if.then16

if.then16:                                        ; preds = %if.end11
  %5 = load ptr, ptr %builder_, align 8
  %vtable19 = load ptr, ptr %5, align 8
  %vfn20 = getelementptr inbounds i8, ptr %vtable19, i64 24
  %6 = load ptr, ptr %vfn20, align 8
  tail call void %6(ptr sret(%"class.arrow::Status") align 8 %agg.result, ptr noundef nonnull align 8 dereferenceable(256) %5, i64 noundef %.sroa.speculated.i)
  br label %return

if.end21:                                         ; preds = %if.end11
  %sub = sub nsw i64 %.sroa.speculated.i, %4
  store i64 %sub, ptr %extra_capacity_, align 8
  %7 = load ptr, ptr %builder_, align 8
  %vtable27 = load ptr, ptr %7, align 8
  %vfn28 = getelementptr inbounds i8, ptr %vtable27, i64 24
  %8 = load ptr, ptr %vfn28, align 8
  tail call void %8(ptr sret(%"class.arrow::Status") align 8 %agg.result, ptr noundef nonnull align 8 dereferenceable(256) %7, i64 noundef %4)
  br label %return

return:                                           ; preds = %if.end21, %if.then16, %if.then10, %if.then
  ret void
}